; ModuleID = '14/988.c'
source_filename = "14/988.c"
target datalayout = "e-m:e-p270:32:32-p271:32:32-p272:64:64-i64:64-f80:128-n8:16:32:64-S128"
target triple = "x86_64-pc-linux-gnu"

%struct.student = type { i32, i32, i32, i32, %struct.student* }

@.str = private unnamed_addr constant [3 x i8] c"%d\00", align 1
@.str.1 = private unnamed_addr constant [7 x i8] c"%d%d%d\00", align 1
@.str.2 = private unnamed_addr constant [7 x i8] c"%d %d\0A\00", align 1

; Function Attrs: noinline nounwind uwtable
define dso_local void @main() #0 {
  %1 = alloca %struct.student*, align 8
  %2 = alloca %struct.student*, align 8
  %3 = alloca %struct.student*, align 8
  %4 = alloca %struct.student*, align 8
  %5 = alloca %struct.student*, align 8
  %6 = alloca %struct.student*, align 8
  %7 = alloca %struct.student*, align 8
  %8 = alloca %struct.student, align 8
  %9 = alloca i32, align 4
  %10 = alloca i32, align 4
  %11 = call i32 (i8*, ...) @__isoc99_scanf(i8* getelementptr inbounds ([3 x i8], [3 x i8]* @.str, i64 0, i64 0), i32* %9)
  store i32 0, i32* %10, align 4
  br label %12

12:                                               ; preds = %45, %0
  %13 = load i32, i32* %10, align 4
  %14 = load i32, i32* %9, align 4
  %15 = icmp slt i32 %13, %14
  br i1 %15, label %16, label %48

16:                                               ; preds = %12
  %17 = call noalias i8* @malloc(i64 100) #3
  %18 = bitcast i8* %17 to %struct.student*
  store %struct.student* %18, %struct.student** %1, align 8
  %19 = load %struct.student*, %struct.student** %1, align 8
  %20 = getelementptr inbounds %struct.student, %struct.student* %19, i32 0, i32 0
  %21 = load %struct.student*, %struct.student** %1, align 8
  %22 = getelementptr inbounds %struct.student, %struct.student* %21, i32 0, i32 1
  %23 = load %struct.student*, %struct.student** %1, align 8
  %24 = getelementptr inbounds %struct.student, %struct.student* %23, i32 0, i32 2
  %25 = call i32 (i8*, ...) @__isoc99_scanf(i8* getelementptr inbounds ([7 x i8], [7 x i8]* @.str.1, i64 0, i64 0), i32* %20, i32* %22, i32* %24)
  %26 = load %struct.student*, %struct.student** %1, align 8
  %27 = getelementptr inbounds %struct.student, %struct.student* %26, i32 0, i32 1
  %28 = load i32, i32* %27, align 4
  %29 = load %struct.student*, %struct.student** %1, align 8
  %30 = getelementptr inbounds %struct.student, %struct.student* %29, i32 0, i32 2
  %31 = load i32, i32* %30, align 8
  %32 = add nsw i32 %28, %31
  %33 = load %struct.student*, %struct.student** %1, align 8
  %34 = getelementptr inbounds %struct.student, %struct.student* %33, i32 0, i32 3
  store i32 %32, i32* %34, align 4
  %35 = load i32, i32* %10, align 4
  %36 = icmp eq i32 %35, 0
  br i1 %36, label %37, label %39

37:                                               ; preds = %16
  %38 = load %struct.student*, %struct.student** %1, align 8
  store %struct.student* %38, %struct.student** %2, align 8
  store %struct.student* %38, %struct.student** %3, align 8
  br label %43

39:                                               ; preds = %16
  %40 = load %struct.student*, %struct.student** %1, align 8
  %41 = load %struct.student*, %struct.student** %2, align 8
  %42 = getelementptr inbounds %struct.student, %struct.student* %41, i32 0, i32 4
  store %struct.student* %40, %struct.student** %42, align 8
  br label %43

43:                                               ; preds = %39, %37
  %44 = load %struct.student*, %struct.student** %1, align 8
  store %struct.student* %44, %struct.student** %2, align 8
  br label %45

45:                                               ; preds = %43
  %46 = load i32, i32* %10, align 4
  %47 = add nsw i32 %46, 1
  store i32 %47, i32* %10, align 4
  br label %12

48:                                               ; preds = %12
  %49 = load %struct.student*, %struct.student** %2, align 8
  %50 = getelementptr inbounds %struct.student, %struct.student* %49, i32 0, i32 4
  store %struct.student* null, %struct.student** %50, align 8
  %51 = load %struct.student*, %struct.student** %3, align 8
  store %struct.student* %51, %struct.student** %4, align 8
  %52 = getelementptr inbounds %struct.student, %struct.student* %8, i32 0, i32 3
  store i32 0, i32* %52, align 4
  store %struct.student* %8, %struct.student** %7, align 8
  store %struct.student* %8, %struct.student** %6, align 8
  store %struct.student* %8, %struct.student** %5, align 8
  br label %53

53:                                               ; preds = %91, %48
  %54 = load %struct.student*, %struct.student** %4, align 8
  %55 = icmp ne %struct.student* %54, null
  br i1 %55, label %56, label %95

56:                                               ; preds = %53
  %57 = load %struct.student*, %struct.student** %4, align 8
  %58 = getelementptr inbounds %struct.student, %struct.student* %57, i32 0, i32 3
  %59 = load i32, i32* %58, align 4
  %60 = load %struct.student*, %struct.student** %5, align 8
  %61 = getelementptr inbounds %struct.student, %struct.student* %60, i32 0, i32 3
  %62 = load i32, i32* %61, align 4
  %63 = icmp sgt i32 %59, %62
  br i1 %63, label %64, label %68

64:                                               ; preds = %56
  %65 = load %struct.student*, %struct.student** %6, align 8
  store %struct.student* %65, %struct.student** %7, align 8
  %66 = load %struct.student*, %struct.student** %5, align 8
  store %struct.student* %66, %struct.student** %6, align 8
  %67 = load %struct.student*, %struct.student** %4, align 8
  store %struct.student* %67, %struct.student** %5, align 8
  br label %91

68:                                               ; preds = %56
  %69 = load %struct.student*, %struct.student** %4, align 8
  %70 = getelementptr inbounds %struct.student, %struct.student* %69, i32 0, i32 3
  %71 = load i32, i32* %70, align 4
  %72 = load %struct.student*, %struct.student** %6, align 8
  %73 = getelementptr inbounds %struct.student, %struct.student* %72, i32 0, i32 3
  %74 = load i32, i32* %73, align 4
  %75 = icmp sgt i32 %71, %74
  br i1 %75, label %76, label %79

76:                                               ; preds = %68
  %77 = load %struct.student*, %struct.student** %6, align 8
  store %struct.student* %77, %struct.student** %7, align 8
  %78 = load %struct.student*, %struct.student** %4, align 8
  store %struct.student* %78, %struct.student** %6, align 8
  br label %90

79:                                               ; preds = %68
  %80 = load %struct.student*, %struct.student** %4, align 8
  %81 = getelementptr inbounds %struct.student, %struct.student* %80, i32 0, i32 3
  %82 = load i32, i32* %81, align 4
  %83 = load %struct.student*, %struct.student** %7, align 8
  %84 = getelementptr inbounds %struct.student, %struct.student* %83, i32 0, i32 3
  %85 = load i32, i32* %84, align 4
  %86 = icmp sgt i32 %82, %85
  br i1 %86, label %87, label %89

87:                                               ; preds = %79
  %88 = load %struct.student*, %struct.student** %4, align 8
  store %struct.student* %88, %struct.student** %7, align 8
  br label %89

89:                                               ; preds = %87, %79
  br label %90

90:                                               ; preds = %89, %76
  br label %91

91:                                               ; preds = %90, %64
  %92 = load %struct.student*, %struct.student** %4, align 8
  %93 = getelementptr inbounds %struct.student, %struct.student* %92, i32 0, i32 4
  %94 = load %struct.student*, %struct.student** %93, align 8
  store %struct.student* %94, %struct.student** %4, align 8
  br label %53

95:                                               ; preds = %53
  %96 = load %struct.student*, %struct.student** %5, align 8
  %97 = getelementptr inbounds %struct.student, %struct.student* %96, i32 0, i32 0
  %98 = load i32, i32* %97, align 8
  %99 = load %struct.student*, %struct.student** %5, align 8
  %100 = getelementptr inbounds %struct.student, %struct.student* %99, i32 0, i32 3
  %101 = load i32, i32* %100, align 4
  %102 = call i32 (i8*, ...) @printf(i8* getelementptr inbounds ([7 x i8], [7 x i8]* @.str.2, i64 0, i64 0), i32 %98, i32 %101)
  %103 = load %struct.student*, %struct.student** %6, align 8
  %104 = getelementptr inbounds %struct.student, %struct.student* %103, i32 0, i32 0
  %105 = load i32, i32* %104, align 8
  %106 = load %struct.student*, %struct.student** %6, align 8
  %107 = getelementptr inbounds %struct.student, %struct.student* %106, i32 0, i32 3
  %108 = load i32, i32* %107, align 4
  %109 = call i32 (i8*, ...) @printf(i8* getelementptr inbounds ([7 x i8], [7 x i8]* @.str.2, i64 0, i64 0), i32 %105, i32 %108)
  %110 = load %struct.student*, %struct.student** %7, align 8
  %111 = getelementptr inbounds %struct.student, %struct.student* %110, i32 0, i32 0
  %112 = load i32, i32* %111, align 8
  %113 = load %struct.student*, %struct.student** %7, align 8
  %114 = getelementptr inbounds %struct.student, %struct.student* %113, i32 0, i32 3
  %115 = load i32, i32* %114, align 4
  %116 = call i32 (i8*, ...) @printf(i8* getelementptr inbounds ([7 x i8], [7 x i8]* @.str.2, i64 0, i64 0), i32 %112, i32 %115)
  ret void
}

declare dso_local i32 @__isoc99_scanf(i8*, ...) #1

; Function Attrs: nounwind
declare dso_local noalias i8* @malloc(i64) #2

declare dso_local i32 @printf(i8*, ...) #1


!llvm.module.flags = !{!0}
!llvm.ident = !{!1}

!0 = !{i32 1, !"wchar_size", i32 4}
!1 = !{!"clang version 10.0.0-4ubuntu1 "}
